target datalayout = "e-m:e-p270:32:32-p271:32:32-p272:64:64-i64:64-i128:128-f80:128-n8:16:32:64-S128"
target triple = "x86_64-pc-linux-gnu"

%class.MemRegion = type { ptr, i64 }
%struct.CDSFileMapRegion = type { i32, i32, i32, i32, i32, i32, i64, i64, i64, i64, i64, i64, i64, ptr }
%class.FileMapInfo = type { i8, i8, i8, i32, i64, ptr, ptr, ptr }
%class.FileMapHeader = type { %struct.CDSFileMapHeaderBase, i64, i32, ptr, i32, i8, i64, i32, i8, i8, i8, i64, i64, i8, i32, [256 x i8], i64, i16, i16, i16, i32, i8, i8, i8, ptr, ptr, i8, i8, i8, i64, i64, i64, i64, i64 }
%struct.CDSFileMapHeaderBase = type { %struct.GenericCDSFileMapHeader, [4 x %struct.CDSFileMapRegion] }
%struct.GenericCDSFileMapHeader = type { i32, i32, i32, i32, i32, i32 }

@_ZN17ArchiveHeapLoader10_is_mappedE = hidden global i8 0, align 1
@_ZN17ArchiveHeapLoader10_is_loadedE = hidden global i8 0, align 1
@_ZN17ArchiveHeapLoader19_loaded_heap_bottomE = hidden global i64 0, align 8
@_ZN17ArchiveHeapLoader16_loaded_heap_topE = hidden global i64 0, align 8
@_ZN17ArchiveHeapLoader19_mapped_heap_bottomE = hidden global i64 0, align 8
@VerifyArchivedFields = external global i32, align 4
@_ZN11FileMapInfo13_current_infoE = external global ptr, align 8
@_ZN8Universe14_collectedHeapE = external global ptr, align 8

; Function Attrs: mustprogress nounwind uwtable
define linkonce_odr hidden noundef i64 @_Z13pointer_deltaPVKvS0_m(ptr noundef %0, ptr noundef %1, i64 noundef %2) #1 comdat {
  %4 = alloca ptr, align 8
  %5 = alloca ptr, align 8
  %6 = alloca i64, align 8
  store ptr %0, ptr %4, align 8
  store ptr %1, ptr %5, align 8
  store i64 %2, ptr %6, align 8
  %7 = load ptr, ptr %4, align 8
  %8 = ptrtoint ptr %7 to i64
  %9 = load ptr, ptr %5, align 8
  %10 = ptrtoint ptr %9 to i64
  %11 = sub i64 %8, %10
  %12 = load i64, ptr %6, align 8
  %13 = udiv i64 %11, %12
  ret i64 %13
}

; Function Attrs: mustprogress nounwind uwtable
define linkonce_odr hidden noundef i64 @_Z13pointer_deltaPKP12HeapWordImplS2_(ptr noundef %0, ptr noundef %1) #1 comdat {
  %3 = alloca ptr, align 8
  %4 = alloca ptr, align 8
  store ptr %0, ptr %3, align 8
  store ptr %1, ptr %4, align 8
  %5 = load ptr, ptr %3, align 8
  %6 = load ptr, ptr %4, align 8
  %7 = call noundef i64 @_Z13pointer_deltaPVKvS0_m(ptr noundef %5, ptr noundef %6, i64 noundef 8)
  ret i64 %7
}

; Function Attrs: mustprogress nounwind uwtable
define linkonce_odr hidden noundef i64 @_ZNK13FileMapHeader17heap_roots_offsetEv(ptr noundef nonnull align 8 dereferenceable(792) %0) #1 comdat align 2 {
  %2 = alloca ptr, align 8
  store ptr %0, ptr %2, align 8
  %3 = load ptr, ptr %2, align 8
  %4 = getelementptr inbounds %class.FileMapHeader, ptr %3, i32 0, i32 29
  %5 = load i64, ptr %4, align 8
  ret i64 %5
}

; Function Attrs: mustprogress nounwind uwtable
define linkonce_odr hidden noundef ptr @_ZNK11FileMapInfo6headerEv(ptr noundef nonnull align 8 dereferenceable(40) %0) #1 comdat align 2 {
  %2 = alloca ptr, align 8
  store ptr %0, ptr %2, align 8
  %3 = load ptr, ptr %2, align 8
  %4 = getelementptr inbounds %class.FileMapInfo, ptr %3, i32 0, i32 7
  %5 = load ptr, ptr %4, align 8
  ret ptr %5
}

; Function Attrs: mustprogress nounwind uwtable
define linkonce_odr hidden noundef zeroext i1 @_ZN17ArchiveHeapLoader9is_mappedEv() #1 comdat align 2 {
  %1 = load i8, ptr @_ZN17ArchiveHeapLoader10_is_mappedE, align 1
  %2 = trunc i8 %1 to i1
  ret i1 %2
}

; Function Attrs: mustprogress nounwind uwtable
define linkonce_odr hidden noundef ptr @_ZN8Universe4heapEv() #1 comdat align 2 {
  %1 = load ptr, ptr @_ZN8Universe14_collectedHeapE, align 8
  ret ptr %1
}

; Function Attrs: mustprogress nounwind uwtable
define linkonce_odr hidden void @_ZN9MemRegionC2EPP12HeapWordImplS2_(ptr noundef nonnull align 8 dereferenceable(16) %0, ptr noundef %1, ptr noundef %2) unnamed_addr #1 comdat align 2 {
  %4 = alloca ptr, align 8
  %5 = alloca ptr, align 8
  %6 = alloca ptr, align 8
  store ptr %0, ptr %4, align 8
  store ptr %1, ptr %5, align 8
  store ptr %2, ptr %6, align 8
  %7 = load ptr, ptr %4, align 8
  %8 = getelementptr inbounds %class.MemRegion, ptr %7, i32 0, i32 0
  %9 = load ptr, ptr %5, align 8
  store ptr %9, ptr %8, align 8
  %10 = getelementptr inbounds %class.MemRegion, ptr %7, i32 0, i32 1
  %11 = load ptr, ptr %6, align 8
  %12 = load ptr, ptr %5, align 8
  %13 = call noundef i64 @_Z13pointer_deltaPKP12HeapWordImplS2_(ptr noundef %11, ptr noundef %12)
  store i64 %13, ptr %10, align 8
  ret void
}

; Function Attrs: mustprogress nounwind uwtable
define linkonce_odr hidden noundef ptr @_Z11cast_to_oopIlEP7oopDescT_(i64 noundef %0) #1 comdat {
  %2 = alloca i64, align 8
  store i64 %0, ptr %2, align 8
  %3 = load i64, ptr %2, align 8
  %4 = inttoptr i64 %3 to ptr
  ret ptr %4
}

; Function Attrs: mustprogress nounwind uwtable
define linkonce_odr hidden noundef i64 @_ZNK11FileMapInfo17heap_roots_offsetEv(ptr noundef nonnull align 8 dereferenceable(40) %0) #1 comdat align 2 {
  %2 = alloca ptr, align 8
  store ptr %0, ptr %2, align 8
  %3 = load ptr, ptr %2, align 8
  %4 = call noundef ptr @_ZNK11FileMapInfo6headerEv(ptr noundef nonnull align 8 dereferenceable(40) %3)
  %5 = call noundef i64 @_ZNK13FileMapHeader17heap_roots_offsetEv(ptr noundef nonnull align 8 dereferenceable(792) %4)
  ret i64 %5
}

; Function Attrs: mustprogress nounwind uwtable
define linkonce_odr hidden noundef ptr @_ZN11FileMapInfo12current_infoEv() #1 comdat align 2 {
  %1 = load ptr, ptr @_ZN11FileMapInfo13_current_infoE, align 8
  ret ptr %1
}

; Function Attrs: mustprogress nounwind uwtable
define linkonce_odr hidden noundef zeroext i1 @_ZN17ArchiveHeapLoader9is_in_useEv() #1 comdat align 2 {
  %1 = call noundef zeroext i1 @_ZN17ArchiveHeapLoader9is_loadedEv()
  br i1 %1, label %4, label %2

2:                                                ; preds = %0
  %3 = call noundef zeroext i1 @_ZN17ArchiveHeapLoader9is_mappedEv()
  br label %4

4:                                                ; preds = %2, %0
  %5 = phi i1 [ true, %0 ], [ %3, %2 ]
  ret i1 %5
}

; Function Attrs: mustprogress nounwind uwtable
define hidden void @_ZN17ArchiveHeapLoader18finish_loaded_heapEv() #1 align 2 {
  %1 = alloca ptr, align 8
  %2 = alloca ptr, align 8
  %3 = alloca %class.MemRegion, align 8
  %4 = alloca %class.MemRegion, align 8
  %5 = load i64, ptr @_ZN17ArchiveHeapLoader19_loaded_heap_bottomE, align 8
  %6 = inttoptr i64 %5 to ptr
  store ptr %6, ptr %1, align 8
  %7 = load i64, ptr @_ZN17ArchiveHeapLoader16_loaded_heap_topE, align 8
  %8 = inttoptr i64 %7 to ptr
  store ptr %8, ptr %2, align 8
  %9 = load ptr, ptr %1, align 8
  %10 = load ptr, ptr %2, align 8
  call void @_ZN9MemRegionC2EPP12HeapWordImplS2_(ptr noundef nonnull align 8 dereferenceable(16) %3, ptr noundef %9, ptr noundef %10)
  %11 = call noundef ptr @_ZN8Universe4heapEv()
  call void @llvm.memcpy.p0.p0.i64(ptr align 8 %4, ptr align 8 %3, i64 16, i1 false)
  %12 = getelementptr inbounds { ptr, i64 }, ptr %4, i32 0, i32 0
  %13 = load ptr, ptr %12, align 8
  %14 = getelementptr inbounds { ptr, i64 }, ptr %4, i32 0, i32 1
  %15 = load i64, ptr %14, align 8
  %16 = load ptr, ptr %11, align 8
  %17 = getelementptr inbounds ptr, ptr %16, i64 56
  %18 = load ptr, ptr %17, align 8
  call void %18(ptr noundef nonnull align 8 dereferenceable(104) %11, ptr %13, i64 %15)
  ret void
}

; Function Attrs: mustprogress nounwind uwtable
define linkonce_odr hidden noundef zeroext i1 @_ZN17ArchiveHeapLoader9is_loadedEv() #1 comdat align 2 {
  %1 = load i8, ptr @_ZN17ArchiveHeapLoader10_is_loadedE, align 1
  %2 = trunc i8 %1 to i1
  ret i1 %2
}

; Function Attrs: mustprogress nounwind uwtable
define hidden void @_ZN17ArchiveHeapLoader21finish_initializationEv() #1 align 2 {
  %1 = alloca i64, align 8
  %2 = alloca i64, align 8
  %3 = call noundef zeroext i1 @_ZN17ArchiveHeapLoader9is_loadedEv()
  br i1 %3, label %4, label %9

4:                                                ; preds = %0
  call void @_ZN17ArchiveHeapLoader18finish_loaded_heapEv()
  %5 = load i32, ptr @VerifyArchivedFields, align 4
  %6 = icmp sgt i32 %5, 0
  br i1 %6, label %7, label %8

7:                                                ; preds = %4
  call void @_ZN17ArchiveHeapLoader18verify_loaded_heapEv()
  br label %8

8:                                                ; preds = %7, %4
  br label %9

9:                                                ; preds = %8, %0
  %10 = call noundef zeroext i1 @_ZN17ArchiveHeapLoader9is_in_useEv()
  br i1 %10, label %11, label %25

11:                                               ; preds = %9
  call void @_ZN17ArchiveHeapLoader21patch_native_pointersEv()
  %12 = call noundef zeroext i1 @_ZN17ArchiveHeapLoader9is_loadedEv()
  br i1 %12, label %13, label %15

13:                                               ; preds = %11
  %14 = load i64, ptr @_ZN17ArchiveHeapLoader19_loaded_heap_bottomE, align 8
  br label %17

15:                                               ; preds = %11
  %16 = load i64, ptr @_ZN17ArchiveHeapLoader19_mapped_heap_bottomE, align 8
  br label %17

17:                                               ; preds = %15, %13
  %18 = phi i64 [ %14, %13 ], [ %16, %15 ]
  store i64 %18, ptr %1, align 8
  %19 = load i64, ptr %1, align 8
  %20 = call noundef ptr @_ZN11FileMapInfo12current_infoEv()
  %21 = call noundef i64 @_ZNK11FileMapInfo17heap_roots_offsetEv(ptr noundef nonnull align 8 dereferenceable(40) %20)
  %22 = add i64 %19, %21
  store i64 %22, ptr %2, align 8
  %23 = load i64, ptr %2, align 8
  %24 = call noundef ptr @_Z11cast_to_oopIlEP7oopDescT_(i64 noundef %23)
  call void @_ZN10HeapShared10init_rootsEP7oopDesc(ptr noundef %24)
  br label %25

25:                                               ; preds = %17, %9
  ret void
}