; Function Attrs: mustprogress nounwind uwtable
define hidden void @_ZN17ArchiveHeapLoader21finish_initializationEv() local_unnamed_addr #2 align 2 {
  %1 = load i8, ptr @_ZN17ArchiveHeapLoader10_is_loadedE, align 1
  %2 = trunc i8 %1 to i1
  br i1 %2, label %3, label %16

3:                                                ; preds = %0
  %4 = load i64, ptr @_ZN17ArchiveHeapLoader19_loaded_heap_bottomE, align 8
  %5 = inttoptr i64 %4 to ptr
  %6 = load i64, ptr @_ZN17ArchiveHeapLoader16_loaded_heap_topE, align 8
  %7 = sub i64 %6, %4
  %8 = lshr i64 %7, 3
  %9 = load ptr, ptr @_ZN8Universe14_collectedHeapE, align 8
  %10 = load ptr, ptr %9, align 8
  %11 = getelementptr inbounds i8, ptr %10, i64 448
  %12 = load ptr, ptr %11, align 8
  tail call void %12(ptr noundef nonnull align 8 dereferenceable(104) %9, ptr %5, i64 %8) #12
  %13 = load i32, ptr @VerifyArchivedFields, align 4
  %14 = icmp sgt i32 %13, 0
  br i1 %14, label %15, label %16

15:                                               ; preds = %3
  tail call void @_ZN17ArchiveHeapLoader18verify_loaded_heapEv()
  br label %16

16:                                               ; preds = %3, %15, %0
  %17 = load i8, ptr @_ZN17ArchiveHeapLoader10_is_loadedE, align 1
  %18 = trunc i8 %17 to i1
  %19 = load i8, ptr @_ZN17ArchiveHeapLoader10_is_mappedE, align 1
  %20 = trunc i8 %19 to i1
  %21 = select i1 %18, i1 true, i1 %20
  br i1 %21, label %22, label %35

22:                                               ; preds = %16
  tail call void @_ZN17ArchiveHeapLoader21patch_native_pointersEv()
  %23 = load i8, ptr @_ZN17ArchiveHeapLoader10_is_loadedE, align 1
  %24 = trunc i8 %23 to i1
  %25 = load i64, ptr @_ZN17ArchiveHeapLoader19_loaded_heap_bottomE, align 8
  %26 = load i64, ptr @_ZN17ArchiveHeapLoader19_mapped_heap_bottomE, align 8
  %27 = select i1 %24, i64 %25, i64 %26
  %28 = load ptr, ptr @_ZN11FileMapInfo13_current_infoE, align 8
  %29 = getelementptr inbounds i8, ptr %28, i64 32
  %30 = load ptr, ptr %29, align 8
  %31 = getelementptr inbounds i8, ptr %30, i64 752
  %32 = load i64, ptr %31, align 8
  %33 = add i64 %32, %27
  %34 = inttoptr i64 %33 to ptr
  tail call void @_ZN10HeapShared10init_rootsEP7oopDesc(ptr noundef %34) #12
  br label %35

35:                                               ; preds = %22, %16
  ret void
}